target datalayout = "e-m:e-p270:32:32-p271:32:32-p272:64:64-i64:64-i128:128-f80:128-n8:16:32:64-S128"
target triple = "x86_64-pc-linux-gnu"

%"class.google::protobuf::Map" = type { %"class.google::protobuf::Map<google::protobuf::MapKey, google::protobuf::MapValueRef>::InnerMap" }
%"class.google::protobuf::Map<google::protobuf::MapKey, google::protobuf::MapValueRef>::InnerMap" = type { i64, i64, i64, i64, ptr, %"class.google::protobuf::internal::MapAllocator" }
%"class.google::protobuf::internal::MapAllocator" = type { ptr }
%"struct.google::protobuf::MapPair" = type { %"class.google::protobuf::MapKey", %"class.google::protobuf::MapValueRef" }
%"class.google::protobuf::MapKey" = type <{ %"union.google::protobuf::MapKey::KeyValue", i32, [4 x i8] }>
%"union.google::protobuf::MapKey::KeyValue" = type { %"class.google::protobuf::internal::ExplicitlyConstructed" }
%"class.google::protobuf::internal::ExplicitlyConstructed" = type { %"union.google::protobuf::internal::ExplicitlyConstructed<std::__cxx11::basic_string<char>>::AlignedUnion" }
%"union.google::protobuf::internal::ExplicitlyConstructed<std::__cxx11::basic_string<char>>::AlignedUnion" = type { i64, [24 x i8] }
%"class.google::protobuf::MapValueRef" = type { %"class.google::protobuf::MapValueConstRef.base", [4 x i8] }
%"class.google::protobuf::MapValueConstRef.base" = type <{ ptr, i32 }>
%"class.google::protobuf::MapValueConstRef" = type <{ ptr, i32, [4 x i8] }>
%"class.google::protobuf::Map<google::protobuf::MapKey, google::protobuf::MapValueRef>::const_iterator" = type { %"class.google::protobuf::Map<google::protobuf::MapKey, google::protobuf::MapValueRef>::InnerMap::iterator_base.0" }
%"class.google::protobuf::Map<google::protobuf::MapKey, google::protobuf::MapValueRef>::InnerMap::iterator_base.0" = type { ptr, ptr, i64 }
%"struct.google::protobuf::Map<google::protobuf::MapKey, google::protobuf::MapValueRef>::InnerMap::Node" = type { %"struct.google::protobuf::MapPair", ptr }
%"struct.std::pair.27" = type { %"class.google::protobuf::Map<google::protobuf::MapKey, google::protobuf::MapValueRef>::InnerMap::iterator_base.0", i64 }

; Function Attrs: mustprogress nounwind uwtable
define linkonce_odr hidden noundef nonnull align 8 dereferenceable(56) ptr @_ZNK6google8protobuf3MapINS0_6MapKeyENS0_11MapValueRefEE8InnerMap13iterator_baseIKNS0_7MapPairIS2_S3_EEEdeEv(ptr noundef nonnull align 8 dereferenceable(24) %0) #4 comdat align 2 {
  %2 = alloca ptr, align 8
  store ptr %0, ptr %2, align 8, !tbaa !323
  %3 = load ptr, ptr %2, align 8
  %4 = getelementptr inbounds nuw %"class.google::protobuf::Map<google::protobuf::MapKey, google::protobuf::MapValueRef>::InnerMap::iterator_base.0", ptr %3, i32 0, i32 0
  %5 = load ptr, ptr %4, align 8, !tbaa !325
  %6 = getelementptr inbounds nuw %"struct.google::protobuf::Map<google::protobuf::MapKey, google::protobuf::MapValueRef>::InnerMap::Node", ptr %5, i32 0, i32 0
  ret ptr %6
}

; Function Attrs: mustprogress nounwind uwtable
define linkonce_odr hidden void @_ZN6google8protobuf3MapINS0_6MapKeyENS0_11MapValueRefEE8InnerMap13iterator_baseIKNS0_7MapPairIS2_S3_EEEC2Ev(ptr noundef nonnull align 8 dereferenceable(24) %0) unnamed_addr #4 comdat align 2 {
  %2 = alloca ptr, align 8
  store ptr %0, ptr %2, align 8, !tbaa !323
  %3 = load ptr, ptr %2, align 8
  %4 = getelementptr inbounds nuw %"class.google::protobuf::Map<google::protobuf::MapKey, google::protobuf::MapValueRef>::InnerMap::iterator_base.0", ptr %3, i32 0, i32 0
  store ptr null, ptr %4, align 8, !tbaa !325
  %5 = getelementptr inbounds nuw %"class.google::protobuf::Map<google::protobuf::MapKey, google::protobuf::MapValueRef>::InnerMap::iterator_base.0", ptr %3, i32 0, i32 1
  store ptr null, ptr %5, align 8, !tbaa !327
  %6 = getelementptr inbounds nuw %"class.google::protobuf::Map<google::protobuf::MapKey, google::protobuf::MapValueRef>::InnerMap::iterator_base.0", ptr %3, i32 0, i32 2
  store i64 0, ptr %6, align 8, !tbaa !328
  ret void
}

; Function Attrs: mustprogress uwtable
define linkonce_odr hidden void @_ZNK6google8protobuf3MapINS0_6MapKeyENS0_11MapValueRefEE8InnerMap10FindHelperIS2_EESt4pairINS5_13iterator_baseIKNS0_7MapPairIS2_S3_EEEEmERKT_(ptr dead_on_unwind noalias writable sret(%"struct.std::pair.27") align 8 %0, ptr noundef nonnull align 8 dereferenceable(48) %1, ptr noundef nonnull align 8 dereferenceable(36) %2) #7 comdat align 2 {
  %4 = alloca ptr, align 8
  %5 = alloca ptr, align 8
  store ptr %1, ptr %4, align 8, !tbaa !97
  store ptr %2, ptr %5, align 8, !tbaa !68
  %6 = load ptr, ptr %4, align 8
  %7 = load ptr, ptr %5, align 8, !tbaa !68
  call void @_ZNK6google8protobuf3MapINS0_6MapKeyENS0_11MapValueRefEE8InnerMap10FindHelperIS2_EESt4pairINS5_13iterator_baseIKNS0_7MapPairIS2_S3_EEEEmERKT_PSt17_Rb_tree_iteratorIS7_IKSt17reference_wrapperIKS2_EPvEE(ptr dead_on_unwind writable sret(%"struct.std::pair.27") align 8 %0, ptr noundef nonnull align 8 dereferenceable(48) %6, ptr noundef nonnull align 8 dereferenceable(36) %7, ptr noundef null)
  ret void
}

; Function Attrs: mustprogress uwtable
define linkonce_odr hidden noundef nonnull align 8 dereferenceable(56) ptr @_ZNK6google8protobuf3MapINS0_6MapKeyENS0_11MapValueRefEE14const_iteratordeEv(ptr noundef nonnull align 8 dereferenceable(24) %0) #7 comdat align 2 {
  %2 = alloca ptr, align 8
  store ptr %0, ptr %2, align 8, !tbaa !70
  %3 = load ptr, ptr %2, align 8
  %4 = getelementptr inbounds nuw %"class.google::protobuf::Map<google::protobuf::MapKey, google::protobuf::MapValueRef>::const_iterator", ptr %3, i32 0, i32 0
  %5 = call noundef nonnull align 8 dereferenceable(56) ptr @_ZNK6google8protobuf3MapINS0_6MapKeyENS0_11MapValueRefEE8InnerMap13iterator_baseIKNS0_7MapPairIS2_S3_EEEdeEv(ptr noundef nonnull align 8 dereferenceable(24) %4)
  ret ptr %5
}

; Function Attrs: mustprogress nounwind uwtable
define linkonce_odr hidden noundef zeroext i1 @_ZN6google8protobufeqERKNS0_3MapINS0_6MapKeyENS0_11MapValueRefEE8InnerMap13iterator_baseIKNS0_7MapPairIS2_S3_EEEESC_(ptr noundef nonnull align 8 dereferenceable(24) %0, ptr noundef nonnull align 8 dereferenceable(24) %1) #4 comdat {
  %3 = alloca ptr, align 8
  %4 = alloca ptr, align 8
  store ptr %0, ptr %3, align 8, !tbaa !323
  store ptr %1, ptr %4, align 8, !tbaa !323
  %5 = load ptr, ptr %3, align 8, !tbaa !323
  %6 = getelementptr inbounds nuw %"class.google::protobuf::Map<google::protobuf::MapKey, google::protobuf::MapValueRef>::InnerMap::iterator_base.0", ptr %5, i32 0, i32 0
  %7 = load ptr, ptr %6, align 8, !tbaa !325
  %8 = load ptr, ptr %4, align 8, !tbaa !323
  %9 = getelementptr inbounds nuw %"class.google::protobuf::Map<google::protobuf::MapKey, google::protobuf::MapValueRef>::InnerMap::iterator_base.0", ptr %8, i32 0, i32 0
  %10 = load ptr, ptr %9, align 8, !tbaa !325
  %11 = icmp eq ptr %7, %10
  ret i1 %11
}

; Function Attrs: mustprogress uwtable
define linkonce_odr hidden void @_ZNK6google8protobuf3MapINS0_6MapKeyENS0_11MapValueRefEE8InnerMap3endEv(ptr dead_on_unwind noalias writable sret(%"class.google::protobuf::Map<google::protobuf::MapKey, google::protobuf::MapValueRef>::InnerMap::iterator_base.0") align 8 %0, ptr noundef nonnull align 8 dereferenceable(48) %1) #7 comdat align 2 {
  %3 = alloca ptr, align 8
  store ptr %1, ptr %3, align 8, !tbaa !97
  call void @_ZN6google8protobuf3MapINS0_6MapKeyENS0_11MapValueRefEE8InnerMap13iterator_baseIKNS0_7MapPairIS2_S3_EEEC2Ev(ptr noundef nonnull align 8 dereferenceable(24) %0)
  ret void
}

; Function Attrs: mustprogress nounwind uwtable
define linkonce_odr hidden void @_ZN6google8protobuf3MapINS0_6MapKeyENS0_11MapValueRefEE14const_iteratorC2ERKNS4_8InnerMap13iterator_baseIKNS0_7MapPairIS2_S3_EEEE(ptr noundef nonnull align 8 dereferenceable(24) %0, ptr noundef nonnull align 8 dereferenceable(24) %1) unnamed_addr #4 comdat align 2 {
  %3 = alloca ptr, align 8
  %4 = alloca ptr, align 8
  store ptr %0, ptr %3, align 8, !tbaa !70
  store ptr %1, ptr %4, align 8, !tbaa !323
  %5 = load ptr, ptr %3, align 8
  %6 = getelementptr inbounds nuw %"class.google::protobuf::Map<google::protobuf::MapKey, google::protobuf::MapValueRef>::const_iterator", ptr %5, i32 0, i32 0
  %7 = load ptr, ptr %4, align 8, !tbaa !323
  call void @llvm.memcpy.p0.p0.i64(ptr align 8 %6, ptr align 8 %7, i64 24, i1 false), !tbaa.struct !94
  ret void
}

; Function Attrs: mustprogress uwtable
define linkonce_odr hidden void @_ZNK6google8protobuf3MapINS0_6MapKeyENS0_11MapValueRefEE8InnerMap4findIS2_EENS5_13iterator_baseIKNS0_7MapPairIS2_S3_EEEERKT_(ptr dead_on_unwind noalias writable sret(%"class.google::protobuf::Map<google::protobuf::MapKey, google::protobuf::MapValueRef>::InnerMap::iterator_base.0") align 8 %0, ptr noundef nonnull align 8 dereferenceable(48) %1, ptr noundef nonnull align 8 dereferenceable(36) %2) #7 comdat align 2 {
  %4 = alloca ptr, align 8
  %5 = alloca ptr, align 8
  %6 = alloca %"struct.std::pair.27", align 8
  store ptr %1, ptr %4, align 8, !tbaa !97
  store ptr %2, ptr %5, align 8, !tbaa !68
  %7 = load ptr, ptr %4, align 8
  call void @llvm.lifetime.start.p0(i64 32, ptr %6) #3
  %8 = load ptr, ptr %5, align 8, !tbaa !68
  call void @_ZNK6google8protobuf3MapINS0_6MapKeyENS0_11MapValueRefEE8InnerMap10FindHelperIS2_EESt4pairINS5_13iterator_baseIKNS0_7MapPairIS2_S3_EEEEmERKT_(ptr dead_on_unwind writable sret(%"struct.std::pair.27") align 8 %6, ptr noundef nonnull align 8 dereferenceable(48) %7, ptr noundef nonnull align 8 dereferenceable(36) %8)
  %9 = getelementptr inbounds nuw %"struct.std::pair.27", ptr %6, i32 0, i32 0
  call void @llvm.memcpy.p0.p0.i64(ptr align 8 %0, ptr align 8 %9, i64 24, i1 false), !tbaa.struct !94
  call void @llvm.lifetime.end.p0(i64 32, ptr %6) #3
  ret void
}

; Function Attrs: mustprogress nounwind uwtable
define linkonce_odr hidden void @_ZN6google8protobuf16MapValueConstRef8CopyFromERKS1_(ptr noundef nonnull align 8 dereferenceable(12) %0, ptr noundef nonnull align 8 dereferenceable(12) %1) #4 comdat align 2 {
  %3 = alloca ptr, align 8
  %4 = alloca ptr, align 8
  store ptr %0, ptr %3, align 8, !tbaa !90
  store ptr %1, ptr %4, align 8, !tbaa !90
  %5 = load ptr, ptr %3, align 8
  %6 = load ptr, ptr %4, align 8, !tbaa !90
  %7 = getelementptr inbounds nuw %"class.google::protobuf::MapValueConstRef", ptr %6, i32 0, i32 1
  %8 = load i32, ptr %7, align 8, !tbaa !63
  %9 = getelementptr inbounds nuw %"class.google::protobuf::MapValueConstRef", ptr %5, i32 0, i32 1
  store i32 %8, ptr %9, align 8, !tbaa !63
  %10 = load ptr, ptr %4, align 8, !tbaa !90
  %11 = getelementptr inbounds nuw %"class.google::protobuf::MapValueConstRef", ptr %10, i32 0, i32 0
  %12 = load ptr, ptr %11, align 8, !tbaa !66
  %13 = getelementptr inbounds nuw %"class.google::protobuf::MapValueConstRef", ptr %5, i32 0, i32 0
  store ptr %12, ptr %13, align 8, !tbaa !66
  ret void
}

; Function Attrs: mustprogress uwtable
define linkonce_odr hidden noundef ptr @_ZNK6google8protobuf3MapINS0_6MapKeyENS0_11MapValueRefEE14const_iteratorptEv(ptr noundef nonnull align 8 dereferenceable(24) %0) #7 comdat align 2 {
  %2 = alloca ptr, align 8
  store ptr %0, ptr %2, align 8, !tbaa !70
  %3 = load ptr, ptr %2, align 8
  %4 = call noundef nonnull align 8 dereferenceable(56) ptr @_ZNK6google8protobuf3MapINS0_6MapKeyENS0_11MapValueRefEE14const_iteratordeEv(ptr noundef nonnull align 8 dereferenceable(24) %3)
  ret ptr %4
}

; Function Attrs: mustprogress uwtable
define linkonce_odr hidden noundef zeroext i1 @_ZN6google8protobufeqERKNS0_3MapINS0_6MapKeyENS0_11MapValueRefEE14const_iteratorES7_(ptr noundef nonnull align 8 dereferenceable(24) %0, ptr noundef nonnull align 8 dereferenceable(24) %1) #7 comdat {
  %3 = alloca ptr, align 8
  %4 = alloca ptr, align 8
  store ptr %0, ptr %3, align 8, !tbaa !70
  store ptr %1, ptr %4, align 8, !tbaa !70
  %5 = load ptr, ptr %3, align 8, !tbaa !70
  %6 = getelementptr inbounds nuw %"class.google::protobuf::Map<google::protobuf::MapKey, google::protobuf::MapValueRef>::const_iterator", ptr %5, i32 0, i32 0
  %7 = load ptr, ptr %4, align 8, !tbaa !70
  %8 = getelementptr inbounds nuw %"class.google::protobuf::Map<google::protobuf::MapKey, google::protobuf::MapValueRef>::const_iterator", ptr %7, i32 0, i32 0
  %9 = call noundef zeroext i1 @_ZN6google8protobufeqERKNS0_3MapINS0_6MapKeyENS0_11MapValueRefEE8InnerMap13iterator_baseIKNS0_7MapPairIS2_S3_EEEESC_(ptr noundef nonnull align 8 dereferenceable(24) %6, ptr noundef nonnull align 8 dereferenceable(24) %8)
  ret i1 %9
}

; Function Attrs: mustprogress uwtable
define linkonce_odr hidden void @_ZNK6google8protobuf3MapINS0_6MapKeyENS0_11MapValueRefEE3endEv(ptr dead_on_unwind noalias writable sret(%"class.google::protobuf::Map<google::protobuf::MapKey, google::protobuf::MapValueRef>::const_iterator") align 8 %0, ptr noundef nonnull align 8 dereferenceable(48) %1) #7 comdat align 2 {
  %3 = alloca ptr, align 8
  %4 = alloca %"class.google::protobuf::Map<google::protobuf::MapKey, google::protobuf::MapValueRef>::InnerMap::iterator_base.0", align 8
  store ptr %1, ptr %3, align 8, !tbaa !55
  %5 = load ptr, ptr %3, align 8
  call void @llvm.lifetime.start.p0(i64 24, ptr %4) #3
  %6 = getelementptr inbounds nuw %"class.google::protobuf::Map", ptr %5, i32 0, i32 0
  call void @_ZNK6google8protobuf3MapINS0_6MapKeyENS0_11MapValueRefEE8InnerMap3endEv(ptr dead_on_unwind writable sret(%"class.google::protobuf::Map<google::protobuf::MapKey, google::protobuf::MapValueRef>::InnerMap::iterator_base.0") align 8 %4, ptr noundef nonnull align 8 dereferenceable(48) %6)
  call void @_ZN6google8protobuf3MapINS0_6MapKeyENS0_11MapValueRefEE14const_iteratorC2ERKNS4_8InnerMap13iterator_baseIKNS0_7MapPairIS2_S3_EEEE(ptr noundef nonnull align 8 dereferenceable(24) %0, ptr noundef nonnull align 8 dereferenceable(24) %4)
  call void @llvm.lifetime.end.p0(i64 24, ptr %4) #3
  ret void
}

; Function Attrs: mustprogress uwtable
define linkonce_odr hidden void @_ZNK6google8protobuf3MapINS0_6MapKeyENS0_11MapValueRefEE4findIS2_EENS4_14const_iteratorERKS2_(ptr dead_on_unwind noalias writable sret(%"class.google::protobuf::Map<google::protobuf::MapKey, google::protobuf::MapValueRef>::const_iterator") align 8 %0, ptr noundef nonnull align 8 dereferenceable(48) %1, ptr noundef nonnull align 8 dereferenceable(36) %2) #7 comdat align 2 {
  %4 = alloca ptr, align 8
  %5 = alloca ptr, align 8
  %6 = alloca %"class.google::protobuf::Map<google::protobuf::MapKey, google::protobuf::MapValueRef>::InnerMap::iterator_base.0", align 8
  store ptr %1, ptr %4, align 8, !tbaa !55
  store ptr %2, ptr %5, align 8, !tbaa !68
  %7 = load ptr, ptr %4, align 8
  call void @llvm.lifetime.start.p0(i64 24, ptr %6) #3
  %8 = getelementptr inbounds nuw %"class.google::protobuf::Map", ptr %7, i32 0, i32 0
  %9 = load ptr, ptr %5, align 8, !tbaa !68
  call void @_ZNK6google8protobuf3MapINS0_6MapKeyENS0_11MapValueRefEE8InnerMap4findIS2_EENS5_13iterator_baseIKNS0_7MapPairIS2_S3_EEEERKT_(ptr dead_on_unwind writable sret(%"class.google::protobuf::Map<google::protobuf::MapKey, google::protobuf::MapValueRef>::InnerMap::iterator_base.0") align 8 %6, ptr noundef nonnull align 8 dereferenceable(48) %8, ptr noundef nonnull align 8 dereferenceable(36) %9)
  call void @_ZN6google8protobuf3MapINS0_6MapKeyENS0_11MapValueRefEE14const_iteratorC2ERKNS4_8InnerMap13iterator_baseIKNS0_7MapPairIS2_S3_EEEE(ptr noundef nonnull align 8 dereferenceable(24) %0, ptr noundef nonnull align 8 dereferenceable(24) %6)
  call void @llvm.lifetime.end.p0(i64 24, ptr %6) #3
  ret void
}

; Function Attrs: mustprogress uwtable
define hidden noundef zeroext i1 @_ZNK6google8protobuf8internal15DynamicMapField14LookupMapValueERKNS0_6MapKeyEPNS0_16MapValueConstRefE(ptr noundef nonnull align 8 dereferenceable(128) %0, ptr noundef nonnull align 8 dereferenceable(36) %1, ptr noundef %2) unnamed_addr #7 align 2 {
  %4 = alloca i1, align 1
  %5 = alloca ptr, align 8
  %6 = alloca ptr, align 8
  %7 = alloca ptr, align 8
  %8 = alloca ptr, align 8
  %9 = alloca %"class.google::protobuf::Map<google::protobuf::MapKey, google::protobuf::MapValueRef>::const_iterator", align 8
  %10 = alloca %"class.google::protobuf::Map<google::protobuf::MapKey, google::protobuf::MapValueRef>::const_iterator", align 8
  %11 = alloca i32, align 4
  store ptr %0, ptr %5, align 8, !tbaa !43
  store ptr %1, ptr %6, align 8, !tbaa !68
  store ptr %2, ptr %7, align 8, !tbaa !90
  %12 = load ptr, ptr %5, align 8
  call void @llvm.lifetime.start.p0(i64 8, ptr %8) #3
  %13 = load ptr, ptr %12, align 8, !tbaa !18
  %14 = getelementptr inbounds ptr, ptr %13, i64 21
  %15 = load ptr, ptr %14, align 8
  %16 = call noundef nonnull align 8 dereferenceable(48) ptr %15(ptr noundef nonnull align 8 dereferenceable(128) %12)
  store ptr %16, ptr %8, align 8, !tbaa !55
  call void @llvm.lifetime.start.p0(i64 24, ptr %9) #3
  %17 = load ptr, ptr %8, align 8, !tbaa !55
  %18 = load ptr, ptr %6, align 8, !tbaa !68
  call void @_ZNK6google8protobuf3MapINS0_6MapKeyENS0_11MapValueRefEE4findIS2_EENS4_14const_iteratorERKS2_(ptr dead_on_unwind writable sret(%"class.google::protobuf::Map<google::protobuf::MapKey, google::protobuf::MapValueRef>::const_iterator") align 8 %9, ptr noundef nonnull align 8 dereferenceable(48) %17, ptr noundef nonnull align 8 dereferenceable(36) %18)
  call void @llvm.lifetime.start.p0(i64 24, ptr %10) #3
  %19 = load ptr, ptr %8, align 8, !tbaa !55
  call void @_ZNK6google8protobuf3MapINS0_6MapKeyENS0_11MapValueRefEE3endEv(ptr dead_on_unwind writable sret(%"class.google::protobuf::Map<google::protobuf::MapKey, google::protobuf::MapValueRef>::const_iterator") align 8 %10, ptr noundef nonnull align 8 dereferenceable(48) %19)
  %20 = call noundef zeroext i1 @_ZN6google8protobufeqERKNS0_3MapINS0_6MapKeyENS0_11MapValueRefEE14const_iteratorES7_(ptr noundef nonnull align 8 dereferenceable(24) %9, ptr noundef nonnull align 8 dereferenceable(24) %10)
  call void @llvm.lifetime.end.p0(i64 24, ptr %10) #3
  br i1 %20, label %21, label %22

21:                                               ; preds = %3
  store i1 false, ptr %4, align 1
  store i32 1, ptr %11, align 4
  br label %26

22:                                               ; preds = %3
  %23 = load ptr, ptr %7, align 8, !tbaa !90
  %24 = call noundef ptr @_ZNK6google8protobuf3MapINS0_6MapKeyENS0_11MapValueRefEE14const_iteratorptEv(ptr noundef nonnull align 8 dereferenceable(24) %9)
  %25 = getelementptr inbounds nuw %"struct.google::protobuf::MapPair", ptr %24, i32 0, i32 1
  call void @_ZN6google8protobuf16MapValueConstRef8CopyFromERKS1_(ptr noundef nonnull align 8 dereferenceable(12) %23, ptr noundef nonnull align 8 dereferenceable(12) %25)
  store i1 true, ptr %4, align 1
  store i32 1, ptr %11, align 4
  br label %26

26:                                               ; preds = %22, %21
  call void @llvm.lifetime.end.p0(i64 24, ptr %9) #3
  call void @llvm.lifetime.end.p0(i64 8, ptr %8) #3
  %27 = load i1, ptr %4, align 1
  ret i1 %27
}