; Function Attrs: mustprogress uwtable
define hidden noundef zeroext i1 @_ZNK6google8protobuf8internal15DynamicMapField14LookupMapValueERKNS0_6MapKeyEPNS0_16MapValueConstRefE(ptr noundef nonnull align 8 dereferenceable(128) %0, ptr noundef nonnull align 8 dereferenceable(36) %1, ptr noundef writeonly captures(none) %2) unnamed_addr #6 align 2 {
  %4 = alloca %"struct.std::pair.27", align 8
  %5 = load ptr, ptr %0, align 8, !tbaa !15
  %6 = getelementptr inbounds nuw i8, ptr %5, i64 168
  %7 = load ptr, ptr %6, align 8
  %8 = tail call noundef nonnull align 8 dereferenceable(48) ptr %7(ptr noundef nonnull align 8 dereferenceable(128) %0)
  call void @llvm.lifetime.start.p0(i64 32, ptr nonnull %4) #29, !noalias !139
  call void @_ZNK6google8protobuf3MapINS0_6MapKeyENS0_11MapValueRefEE8InnerMap10FindHelperIS2_EESt4pairINS5_13iterator_baseIKNS0_7MapPairIS2_S3_EEEEmERKT_PSt17_Rb_tree_iteratorIS7_IKSt17reference_wrapperIKS2_EPvEE(ptr dead_on_unwind nonnull writable sret(%"struct.std::pair.27") align 8 %4, ptr noundef nonnull align 8 dereferenceable(48) %8, ptr noundef nonnull align 8 dereferenceable(36) %1, ptr noundef null), !noalias !139
  %.sroa.06.0.copyload = load ptr, ptr %4, align 8
  call void @llvm.lifetime.end.p0(i64 32, ptr nonnull %4) #29, !noalias !139
  %9 = icmp ne ptr %.sroa.06.0.copyload, null
  br i1 %9, label %10, label %16

10:                                               ; preds = %3
  %11 = getelementptr inbounds nuw i8, ptr %.sroa.06.0.copyload, i64 40
  %12 = getelementptr inbounds nuw i8, ptr %.sroa.06.0.copyload, i64 48
  %13 = load i32, ptr %12, align 8, !tbaa !88
  %14 = getelementptr inbounds nuw i8, ptr %2, i64 8
  store i32 %13, ptr %14, align 8, !tbaa !88
  %15 = load ptr, ptr %11, align 8, !tbaa !91
  store ptr %15, ptr %2, align 8, !tbaa !91
  br label %16

16:                                               ; preds = %3, %10
  ret i1 %9
}